; Function Attrs: nounwind uwtable
define internal fastcc void @_jumbleReindexStmt(ptr noundef %0, ptr noundef nonnull readonly captures(none) %1) unnamed_addr #0 {
  %3 = getelementptr inbounds nuw i8, ptr %1, i64 4
  %4 = load ptr, ptr %0, align 8
  %5 = getelementptr inbounds nuw i8, ptr %0, i64 8
  %6 = load i64, ptr %5, align 8
  br label %.lr.ph.i

.lr.ph.i:                                         ; preds = %10, %2
  %.026.i = phi ptr [ %15, %10 ], [ %3, %2 ]
  %.02125.i = phi i64 [ %16, %10 ], [ 4, %2 ]
  %.02224.i = phi i64 [ %14, %10 ], [ %6, %2 ]
  %7 = icmp ugt i64 %.02224.i, 1023
  br i1 %7, label %8, label %10

8:                                                ; preds = %.lr.ph.i
  %9 = tail call i64 @hash_bytes_extended(ptr noundef %4, i32 noundef 1024, i64 noundef 0) #9
  store i64 %9, ptr %4, align 1
  br label %10

10:                                               ; preds = %8, %.lr.ph.i
  %.1.i = phi i64 [ 8, %8 ], [ %.02224.i, %.lr.ph.i ]
  %11 = sub nuw nsw i64 1024, %.1.i
  %12 = tail call i64 @llvm.umin.i64(i64 %.02125.i, i64 %11)
  %13 = getelementptr inbounds nuw i8, ptr %4, i64 %.1.i
  tail call void @llvm.memcpy.p0.p0.i64(ptr noundef nonnull align 1 dereferenceable(1) %13, ptr noundef nonnull align 1 dereferenceable(1) %.026.i, i64 %12, i1 false)
  %14 = add nuw nsw i64 %12, %.1.i
  %15 = getelementptr inbounds nuw i8, ptr %.026.i, i64 %12
  %16 = sub i64 %.02125.i, %12
  %.not.i = icmp eq i64 %16, 0
  br i1 %.not.i, label %AppendJumble.exit, label %.lr.ph.i, !llvm.loop !7

AppendJumble.exit:                                ; preds = %10
  store i64 %14, ptr %5, align 8
  %17 = getelementptr inbounds nuw i8, ptr %1, i64 8
  %18 = load ptr, ptr %17, align 8
  tail call fastcc void @_jumbleNode(ptr noundef nonnull %0, ptr noundef %18)
  %19 = getelementptr inbounds nuw i8, ptr %1, i64 16
  %20 = load ptr, ptr %19, align 8
  %.not = icmp eq ptr %20, null
  br i1 %.not, label %36, label %21

21:                                               ; preds = %AppendJumble.exit
  %22 = tail call i64 @strlen(ptr noundef nonnull dereferenceable(1) %20) #8
  %23 = add i64 %22, 1
  %24 = load ptr, ptr %0, align 8
  %25 = load i64, ptr %5, align 8
  %.not23.i = icmp eq i64 %23, 0
  br i1 %.not23.i, label %AppendJumble.exit17, label %.lr.ph.i11

.lr.ph.i11:                                       ; preds = %21, %29
  %.026.i12 = phi ptr [ %34, %29 ], [ %20, %21 ]
  %.02125.i13 = phi i64 [ %35, %29 ], [ %23, %21 ]
  %.02224.i14 = phi i64 [ %33, %29 ], [ %25, %21 ]
  %26 = icmp ugt i64 %.02224.i14, 1023
  br i1 %26, label %27, label %29

27:                                               ; preds = %.lr.ph.i11
  %28 = tail call i64 @hash_bytes_extended(ptr noundef %24, i32 noundef 1024, i64 noundef 0) #9
  store i64 %28, ptr %24, align 1
  br label %29

29:                                               ; preds = %27, %.lr.ph.i11
  %.1.i15 = phi i64 [ 8, %27 ], [ %.02224.i14, %.lr.ph.i11 ]
  %30 = sub nuw nsw i64 1024, %.1.i15
  %31 = tail call i64 @llvm.umin.i64(i64 %.02125.i13, i64 %30)
  %32 = getelementptr inbounds nuw i8, ptr %24, i64 %.1.i15
  tail call void @llvm.memcpy.p0.p0.i64(ptr noundef nonnull align 1 dereferenceable(1) %32, ptr noundef nonnull align 1 dereferenceable(1) %.026.i12, i64 %31, i1 false)
  %33 = add nuw nsw i64 %31, %.1.i15
  %34 = getelementptr inbounds nuw i8, ptr %.026.i12, i64 %31
  %35 = sub i64 %.02125.i13, %31
  %.not.i16 = icmp eq i64 %35, 0
  br i1 %.not.i16, label %AppendJumble.exit17, label %.lr.ph.i11, !llvm.loop !7

AppendJumble.exit17:                              ; preds = %29, %21
  %.022.lcssa.i = phi i64 [ %25, %21 ], [ %33, %29 ]
  store i64 %.022.lcssa.i, ptr %5, align 8
  br label %36

36:                                               ; preds = %AppendJumble.exit17, %AppendJumble.exit
  %37 = getelementptr inbounds nuw i8, ptr %1, i64 24
  %38 = load ptr, ptr %37, align 8
  tail call fastcc void @_jumbleNode(ptr noundef nonnull %0, ptr noundef %38)
  ret void
}